; Function Attrs: mustprogress uwtable
define void @_ZN3fmt3v114file3dupEi(ptr dead_on_unwind noalias writable writeonly sret(%"class.fmt::v11::file") align 4 captures(none) %0, i32 noundef %1) local_unnamed_addr #6 align 2 personality ptr @__gxx_personality_v0 {
  %3 = alloca %"struct.fmt::v11::detail::format_arg_store.42", align 16
  %4 = tail call i32 @dup(i32 noundef %1) #17
  %5 = icmp eq i32 %4, -1
  br i1 %5, label %6, label %13

6:                                                ; preds = %2
  %7 = tail call ptr @__cxa_allocate_exception(i64 32) #17
  %8 = tail call ptr @__errno_location() #16
  %9 = load i32, ptr %8, align 4, !tbaa !9
  call void @llvm.lifetime.start.p0(i64 16, ptr nonnull %3) #17, !noalias !46
  %.sroa.01.0.insert.ext.i.i = zext i32 %1 to i64
  store i64 %.sroa.01.0.insert.ext.i.i, ptr %3, align 16, !noalias !46
  invoke void @_ZN3fmt3v1113vsystem_errorEiNS0_17basic_string_viewIcEENS0_17basic_format_argsINS0_7contextEEE(ptr dead_on_unwind writable sret(%"class.std::system_error") align 8 %7, i32 noundef %9, ptr nonnull @.str.7, i64 35, i64 1, ptr nonnull %3)
          to label %10 unwind label %11

10:                                               ; preds = %6
  call void @llvm.lifetime.end.p0(i64 16, ptr nonnull %3) #17, !noalias !46
  call void @__cxa_throw(ptr %7, ptr nonnull @_ZTISt12system_error, ptr nonnull @_ZNSt12system_errorD1Ev) #19
  unreachable

11:                                               ; preds = %6
  %12 = landingpad { ptr, i32 }
          cleanup
  call void @__cxa_free_exception(ptr %7) #17
  resume { ptr, i32 } %12

13:                                               ; preds = %2
  store i32 %4, ptr %0, align 4, !tbaa !22
  ret void
}